; Function Attrs: nounwind uwtable
define ptr @l_Lean_withTraceNode___at_Lean_Elab_Tactic_BVDecide_Frontend_LratCert_load___spec__2___lambda__4___boxed(ptr noundef %0, ptr noundef %1, ptr noundef %2, ptr noundef %3, ptr noundef %4, ptr noundef %5, ptr noundef %6, ptr noundef %7, ptr noundef %8, ptr noundef %9, ptr noundef %10) local_unnamed_addr #0 {
  %12 = ptrtoint ptr %2 to i64
  %13 = lshr i64 %12, 1
  %14 = trunc i64 %13 to i8
  %15 = and i64 %12, 1
  %.not = icmp eq i64 %15, 0
  br i1 %.not, label %16, label %lean_dec.exit19

16:                                               ; preds = %11
  %17 = load i32, ptr %2, align 4, !tbaa !8
  %18 = icmp sgt i32 %17, 1
  br i1 %18, label %19, label %21, !prof !11

19:                                               ; preds = %16
  %20 = add nsw i32 %17, -1
  store i32 %20, ptr %2, align 4, !tbaa !8
  br label %lean_dec.exit19

21:                                               ; preds = %16
  %.not.i = icmp eq i32 %17, 0
  br i1 %.not.i, label %lean_dec.exit19, label %22

22:                                               ; preds = %21
  tail call void @lean_dec_ref_cold(ptr noundef nonnull %2) #4
  br label %lean_dec.exit19

lean_dec.exit19:                                  ; preds = %22, %21, %19, %11
  %23 = ptrtoint ptr %5 to i64
  %24 = lshr i64 %23, 1
  %25 = trunc i64 %24 to i8
  %26 = and i64 %23, 1
  %.not26 = icmp eq i64 %26, 0
  br i1 %.not26, label %27, label %lean_dec.exit18

27:                                               ; preds = %lean_dec.exit19
  %28 = load i32, ptr %5, align 4, !tbaa !8
  %29 = icmp sgt i32 %28, 1
  br i1 %29, label %30, label %32, !prof !11

30:                                               ; preds = %27
  %31 = add nsw i32 %28, -1
  store i32 %31, ptr %5, align 4, !tbaa !8
  br label %lean_dec.exit18

32:                                               ; preds = %27
  %.not.i20 = icmp eq i32 %28, 0
  br i1 %.not.i20, label %lean_dec.exit18, label %33

33:                                               ; preds = %32
  tail call void @lean_dec_ref_cold(ptr noundef nonnull %5) #4
  br label %lean_dec.exit18

lean_dec.exit18:                                  ; preds = %33, %32, %30, %lean_dec.exit19
  %34 = tail call ptr @l_Lean_withTraceNode___at_Lean_Elab_Tactic_BVDecide_Frontend_LratCert_load___spec__2___lambda__4(ptr noundef %0, ptr noundef %1, i8 noundef zeroext %14, ptr noundef %3, ptr noundef %4, i8 noundef zeroext %25, ptr noundef %6, ptr poison, ptr noundef %8, ptr noundef %9, ptr noundef %10)
  %35 = ptrtoint ptr %7 to i64
  %36 = and i64 %35, 1
  %.not27 = icmp eq i64 %36, 0
  br i1 %.not27, label %37, label %lean_dec.exit17

37:                                               ; preds = %lean_dec.exit18
  %38 = load i32, ptr %7, align 4, !tbaa !8
  %39 = icmp sgt i32 %38, 1
  br i1 %39, label %40, label %42, !prof !11

40:                                               ; preds = %37
  %41 = add nsw i32 %38, -1
  store i32 %41, ptr %7, align 4, !tbaa !8
  br label %lean_dec.exit17

42:                                               ; preds = %37
  %.not.i22 = icmp eq i32 %38, 0
  br i1 %.not.i22, label %lean_dec.exit17, label %43

43:                                               ; preds = %42
  tail call void @lean_dec_ref_cold(ptr noundef nonnull %7) #4
  br label %lean_dec.exit17

lean_dec.exit17:                                  ; preds = %43, %42, %40, %lean_dec.exit18
  %44 = ptrtoint ptr %0 to i64
  %45 = and i64 %44, 1
  %.not28 = icmp eq i64 %45, 0
  br i1 %.not28, label %46, label %lean_dec.exit

46:                                               ; preds = %lean_dec.exit17
  %47 = load i32, ptr %0, align 4, !tbaa !8
  %48 = icmp sgt i32 %47, 1
  br i1 %48, label %49, label %51, !prof !11

49:                                               ; preds = %46
  %50 = add nsw i32 %47, -1
  store i32 %50, ptr %0, align 4, !tbaa !8
  br label %lean_dec.exit

51:                                               ; preds = %46
  %.not.i24 = icmp eq i32 %47, 0
  br i1 %.not.i24, label %lean_dec.exit, label %52

52:                                               ; preds = %51
  tail call void @lean_dec_ref_cold(ptr noundef nonnull %0) #4
  br label %lean_dec.exit

lean_dec.exit:                                    ; preds = %52, %51, %49, %lean_dec.exit17
  ret ptr %34
}